; ModuleID = 'source-C-CXX/55/832.c'
source_filename = "source-C-CXX/55/832.c"
target datalayout = "e-m:e-p270:32:32-p271:32:32-p272:64:64-i64:64-f80:128-n8:16:32:64-S128"
target triple = "x86_64-pc-linux-gnu"

@.str = private unnamed_addr constant [3 x i8] c"%c\00", align 1

; Function Attrs: nofree nounwind sspstrong uwtable
define dso_local void @main() local_unnamed_addr #0 {
  %1 = alloca [6 x i8], align 1
  %2 = getelementptr inbounds [6 x i8], [6 x i8]* %1, i64 0, i64 0
  call void @llvm.lifetime.start.p0i8(i64 6, i8* nonnull %2) #4
  %3 = call i32 (i8*, ...) @__isoc99_scanf(i8* getelementptr inbounds ([3 x i8], [3 x i8]* @.str, i64 0, i64 0), i8* nonnull %2)
  %4 = load i8, i8* %2, align 1, !tbaa !5
  %5 = icmp eq i8 %4, 10
  br i1 %5, label %21, label %6

6:                                                ; preds = %0
  %7 = getelementptr inbounds [6 x i8], [6 x i8]* %1, i64 0, i64 1
  %8 = call i32 (i8*, ...) @__isoc99_scanf(i8* getelementptr inbounds ([3 x i8], [3 x i8]* @.str, i64 0, i64 0), i8* nonnull %7)
  %9 = load i8, i8* %7, align 1, !tbaa !5
  %10 = icmp eq i8 %9, 10
  br i1 %10, label %11, label %23

11:                                               ; preds = %6, %23, %28, %33, %38
  %12 = phi i64 [ 0, %6 ], [ 1, %23 ], [ 2, %28 ], [ 3, %33 ], [ 4, %38 ]
  br label %13

13:                                               ; preds = %11, %13
  %14 = phi i64 [ %20, %13 ], [ %12, %11 ]
  %15 = getelementptr inbounds [6 x i8], [6 x i8]* %1, i64 0, i64 %14
  %16 = load i8, i8* %15, align 1, !tbaa !5
  %17 = sext i8 %16 to i32
  %18 = call i32 @putchar(i32 %17)
  %19 = icmp sgt i64 %14, 0
  %20 = add nsw i64 %14, -1
  br i1 %19, label %13, label %21, !llvm.loop !8

21:                                               ; preds = %13, %38, %0
  %22 = call i32 @putchar(i32 10)
  call void @llvm.lifetime.end.p0i8(i64 6, i8* nonnull %2) #4
  ret void

23:                                               ; preds = %6
  %24 = getelementptr inbounds [6 x i8], [6 x i8]* %1, i64 0, i64 2
  %25 = call i32 (i8*, ...) @__isoc99_scanf(i8* getelementptr inbounds ([3 x i8], [3 x i8]* @.str, i64 0, i64 0), i8* nonnull %24)
  %26 = load i8, i8* %24, align 1, !tbaa !5
  %27 = icmp eq i8 %26, 10
  br i1 %27, label %11, label %28

28:                                               ; preds = %23
  %29 = getelementptr inbounds [6 x i8], [6 x i8]* %1, i64 0, i64 3
  %30 = call i32 (i8*, ...) @__isoc99_scanf(i8* getelementptr inbounds ([3 x i8], [3 x i8]* @.str, i64 0, i64 0), i8* nonnull %29)
  %31 = load i8, i8* %29, align 1, !tbaa !5
  %32 = icmp eq i8 %31, 10
  br i1 %32, label %11, label %33

33:                                               ; preds = %28
  %34 = getelementptr inbounds [6 x i8], [6 x i8]* %1, i64 0, i64 4
  %35 = call i32 (i8*, ...) @__isoc99_scanf(i8* getelementptr inbounds ([3 x i8], [3 x i8]* @.str, i64 0, i64 0), i8* nonnull %34)
  %36 = load i8, i8* %34, align 1, !tbaa !5
  %37 = icmp eq i8 %36, 10
  br i1 %37, label %11, label %38

38:                                               ; preds = %33
  %39 = getelementptr inbounds [6 x i8], [6 x i8]* %1, i64 0, i64 5
  %40 = call i32 (i8*, ...) @__isoc99_scanf(i8* getelementptr inbounds ([3 x i8], [3 x i8]* @.str, i64 0, i64 0), i8* nonnull %39)
  %41 = load i8, i8* %39, align 1, !tbaa !5
  %42 = icmp eq i8 %41, 10
  br i1 %42, label %11, label %21
}

; Function Attrs: argmemonly mustprogress nofree nosync nounwind willreturn
declare void @llvm.lifetime.start.p0i8(i64 immarg, i8* nocapture) #1

; Function Attrs: nofree nounwind
declare noundef i32 @__isoc99_scanf(i8* nocapture noundef readonly, ...) local_unnamed_addr #2

; Function Attrs: argmemonly mustprogress nofree nosync nounwind willreturn
declare void @llvm.lifetime.end.p0i8(i64 immarg, i8* nocapture) #1

; Function Attrs: nofree nounwind
declare noundef i32 @putchar(i32 noundef) local_unnamed_addr #3


!llvm.module.flags = !{!0, !1, !2, !3}
!llvm.ident = !{!4}

!0 = !{i32 1, !"wchar_size", i32 4}
!1 = !{i32 7, !"PIC Level", i32 2}
!2 = !{i32 7, !"PIE Level", i32 2}
!3 = !{i32 7, !"uwtable", i32 1}
!4 = !{!"clang version 13.0.0"}
!5 = !{!6, !6, i64 0}
!6 = !{!"omnipotent char", !7, i64 0}
!7 = !{!"Simple C/C++ TBAA"}
!8 = distinct !{!8, !9}
!9 = !{!"llvm.loop.mustprogress"}
